target datalayout = "e-m:e-p270:32:32-p271:32:32-p272:64:64-i64:64-i128:128-f80:128-n8:16:32:64-S128"
target triple = "x86_64-unknown-linux-gnu"

%"class.google::protobuf::io::CodedInputStream" = type { ptr, ptr, ptr, i32, i32, i32, i8, i8, i8, i32, i32, i32, i32, i32, ptr, ptr }
%"struct.google::protobuf::Metadata" = type { ptr, ptr }
%"class.google::protobuf::Descriptor" = type { %"class.google::protobuf::internal::SymbolBase", i8, i16, i32, ptr, ptr, ptr, ptr, ptr, ptr, ptr, ptr, ptr, ptr, ptr, ptr, ptr, ptr, i32, i32, i32, i32, i32, i32, i32, i32 }
%"class.google::protobuf::internal::SymbolBase" = type { i8 }
%"class.google::protobuf::internal::CachedSize" = type { i32 }
%"class.google::protobuf::MessageOptions" = type { %"class.google::protobuf::Message", %union.anon.32 }
%"class.google::protobuf::Message" = type { %"class.google::protobuf::MessageLite" }
%"class.google::protobuf::MessageLite" = type { ptr, %"class.google::protobuf::internal::InternalMetadata" }
%"class.google::protobuf::internal::InternalMetadata" = type { i64 }
%union.anon.32 = type { %"struct.google::protobuf::MessageOptions::Impl_" }
%"struct.google::protobuf::MessageOptions::Impl_" = type <{ %"class.google::protobuf::internal::ExtensionSet", %"class.google::protobuf::internal::HasBits", %"class.google::protobuf::internal::CachedSize", %"class.google::protobuf::RepeatedPtrField", ptr, i8, i8, i8, i8, i8, [3 x i8] }>
%"class.google::protobuf::internal::ExtensionSet" = type { ptr, i16, i16, %"union.google::protobuf::internal::ExtensionSet::AllocatedData" }
%"union.google::protobuf::internal::ExtensionSet::AllocatedData" = type { ptr }
%"class.google::protobuf::internal::HasBits" = type { [1 x i32] }
%"class.google::protobuf::RepeatedPtrField" = type { %"class.google::protobuf::internal::RepeatedPtrFieldBase" }
%"class.google::protobuf::internal::RepeatedPtrFieldBase" = type { ptr, i32, i32, ptr }

; Function Attrs: mustprogress nounwind uwtable
define linkonce_odr hidden noundef zeroext i1 @_ZNK6google8protobuf14MessageOptions33_internal_message_set_wire_formatEv(ptr noundef nonnull align 8 dereferenceable(88) %this) #5 comdat align 2 {
entry:
  %this.addr = alloca ptr, align 8
  store ptr %this, ptr %this.addr, align 8
  %this1 = load ptr, ptr %this.addr, align 8
  %0 = getelementptr inbounds %"class.google::protobuf::MessageOptions", ptr %this1, i32 0, i32 1
  %message_set_wire_format_ = getelementptr inbounds %"struct.google::protobuf::MessageOptions::Impl_", ptr %0, i32 0, i32 5
  %1 = load i8, ptr %message_set_wire_format_, align 8
  %tobool = trunc i8 %1 to i1
  ret i1 %tobool
}

; Function Attrs: mustprogress uwtable
define linkonce_odr hidden noundef zeroext i1 @_ZNK6google8protobuf14MessageOptions23message_set_wire_formatEv(ptr noundef nonnull align 8 dereferenceable(88) %this) #4 comdat align 2 {
entry:
  %this.addr = alloca ptr, align 8
  store ptr %this, ptr %this.addr, align 8
  %this1 = load ptr, ptr %this.addr, align 8
  %call = call noundef zeroext i1 @_ZNK6google8protobuf14MessageOptions33_internal_message_set_wire_formatEv(ptr noundef nonnull align 8 dereferenceable(88) %this1)
  ret i1 %call
}

; Function Attrs: mustprogress nounwind uwtable
define linkonce_odr hidden noundef nonnull align 8 dereferenceable(88) ptr @_ZNK6google8protobuf10Descriptor7optionsEv(ptr noundef nonnull align 8 dereferenceable(152) %this) #5 comdat align 2 {
entry:
  %this.addr = alloca ptr, align 8
  store ptr %this, ptr %this.addr, align 8
  %this1 = load ptr, ptr %this.addr, align 8
  %options_ = getelementptr inbounds %"class.google::protobuf::Descriptor", ptr %this1, i32 0, i32 7
  %0 = load ptr, ptr %options_, align 8
  ret ptr %0
}

; Function Attrs: mustprogress nounwind uwtable
define linkonce_odr hidden noundef ptr @_ZN6google8protobuf2io16CodedInputStream16GetExtensionPoolEv(ptr noundef nonnull align 8 dereferenceable(80) %this) #5 comdat align 2 {
entry:
  %this.addr = alloca ptr, align 8
  store ptr %this, ptr %this.addr, align 8
  %this1 = load ptr, ptr %this.addr, align 8
  %extension_pool_ = getelementptr inbounds %"class.google::protobuf::io::CodedInputStream", ptr %this1, i32 0, i32 14
  %0 = load ptr, ptr %extension_pool_, align 8
  ret ptr %0
}

; Function Attrs: mustprogress uwtable
define linkonce_odr hidden noundef zeroext i1 @_ZNK6google8protobuf10Descriptor17IsExtensionNumberEi(ptr noundef nonnull align 8 dereferenceable(152) %this, i32 noundef %number) #4 comdat align 2 {
entry:
  %this.addr = alloca ptr, align 8
  %number.addr = alloca i32, align 4
  store ptr %this, ptr %this.addr, align 8
  store i32 %number, ptr %number.addr, align 4
  %this1 = load ptr, ptr %this.addr, align 8
  %0 = load i32, ptr %number.addr, align 4
  %call = call noundef ptr @_ZNK6google8protobuf10Descriptor34FindExtensionRangeContainingNumberEi(ptr noundef nonnull align 8 dereferenceable(152) %this1, i32 noundef %0)
  %cmp = icmp ne ptr %call, null
  ret i1 %cmp
}

; Function Attrs: mustprogress nounwind uwtable
define linkonce_odr hidden noundef i32 @_ZN6google8protobuf8internal14WireFormatLite17GetTagFieldNumberEj(i32 noundef %tag) #5 comdat align 2 {
entry:
  %tag.addr = alloca i32, align 4
  store i32 %tag, ptr %tag.addr, align 4
  %0 = load i32, ptr %tag.addr, align 4
  %shr = lshr i32 %0, 3
  ret i32 %shr
}

; Function Attrs: mustprogress nounwind uwtable
define linkonce_odr hidden noundef i32 @_ZN6google8protobuf8internal14WireFormatLite14GetTagWireTypeEj(i32 noundef %tag) #5 comdat align 2 {
entry:
  %tag.addr = alloca i32, align 4
  store i32 %tag, ptr %tag.addr, align 4
  %0 = load i32, ptr %tag.addr, align 4
  %and = and i32 %0, 7
  ret i32 %and
}

; Function Attrs: mustprogress nounwind uwtable
define linkonce_odr hidden void @_ZN6google8protobuf2io16CodedInputStream7AdvanceEi(ptr noundef nonnull align 8 dereferenceable(80) %this, i32 noundef %amount) #5 comdat align 2 {
entry:
  %this.addr = alloca ptr, align 8
  %amount.addr = alloca i32, align 4
  store ptr %this, ptr %this.addr, align 8
  store i32 %amount, ptr %amount.addr, align 4
  %this1 = load ptr, ptr %this.addr, align 8
  %0 = load i32, ptr %amount.addr, align 4
  %buffer_ = getelementptr inbounds %"class.google::protobuf::io::CodedInputStream", ptr %this1, i32 0, i32 0
  %1 = load ptr, ptr %buffer_, align 8
  %idx.ext = sext i32 %0 to i64
  %add.ptr = getelementptr inbounds i8, ptr %1, i64 %idx.ext
  store ptr %add.ptr, ptr %buffer_, align 8
  ret void
}

; Function Attrs: mustprogress uwtable
define linkonce_odr hidden noundef ptr @_ZNK6google8protobuf7Message13GetReflectionEv(ptr noundef nonnull align 8 dereferenceable(16) %this) #4 comdat align 2 {
entry:
  %this.addr = alloca ptr, align 8
  %ref.tmp = alloca %"struct.google::protobuf::Metadata", align 8
  store ptr %this, ptr %this.addr, align 8
  %this1 = load ptr, ptr %this.addr, align 8
  %vtable = load ptr, ptr %this1, align 8
  %vfn = getelementptr inbounds ptr, ptr %vtable, i64 10
  %0 = load ptr, ptr %vfn, align 8
  %call = call { ptr, ptr } %0(ptr noundef nonnull align 8 dereferenceable(16) %this1)
  %1 = getelementptr inbounds { ptr, ptr }, ptr %ref.tmp, i32 0, i32 0
  %2 = extractvalue { ptr, ptr } %call, 0
  store ptr %2, ptr %1, align 8
  %3 = getelementptr inbounds { ptr, ptr }, ptr %ref.tmp, i32 0, i32 1
  %4 = extractvalue { ptr, ptr } %call, 1
  store ptr %4, ptr %3, align 8
  %reflection = getelementptr inbounds %"struct.google::protobuf::Metadata", ptr %ref.tmp, i32 0, i32 1
  %5 = load ptr, ptr %reflection, align 8
  ret ptr %5
}

; Function Attrs: mustprogress uwtable
define linkonce_odr hidden noundef ptr @_ZNK6google8protobuf7Message13GetDescriptorEv(ptr noundef nonnull align 8 dereferenceable(16) %this) #4 comdat align 2 {
entry:
  %this.addr = alloca ptr, align 8
  %ref.tmp = alloca %"struct.google::protobuf::Metadata", align 8
  store ptr %this, ptr %this.addr, align 8
  %this1 = load ptr, ptr %this.addr, align 8
  %vtable = load ptr, ptr %this1, align 8
  %vfn = getelementptr inbounds ptr, ptr %vtable, i64 10
  %0 = load ptr, ptr %vfn, align 8
  %call = call { ptr, ptr } %0(ptr noundef nonnull align 8 dereferenceable(16) %this1)
  %1 = getelementptr inbounds { ptr, ptr }, ptr %ref.tmp, i32 0, i32 0
  %2 = extractvalue { ptr, ptr } %call, 0
  store ptr %2, ptr %1, align 8
  %3 = getelementptr inbounds { ptr, ptr }, ptr %ref.tmp, i32 0, i32 1
  %4 = extractvalue { ptr, ptr } %call, 1
  store ptr %4, ptr %3, align 8
  %descriptor = getelementptr inbounds %"struct.google::protobuf::Metadata", ptr %ref.tmp, i32 0, i32 0
  %5 = load ptr, ptr %descriptor, align 8
  ret ptr %5
}

; Function Attrs: mustprogress uwtable
define noundef zeroext i1 @_ZN6google8protobuf8internal10WireFormat20ParseAndMergePartialEPNS0_2io16CodedInputStreamEPNS0_7MessageE(ptr noundef %input, ptr noundef %message) #4 align 2 {
entry:
  %retval.i = alloca i32, align 4
  %this.addr.i37 = alloca ptr, align 8
  %v.i = alloca i32, align 4
  %this.addr.i = alloca ptr, align 8
  %retval = alloca i1, align 1
  %input.addr = alloca ptr, align 8
  %message.addr = alloca ptr, align 8
  %descriptor = alloca ptr, align 8
  %message_reflection = alloca ptr, align 8
  %tag = alloca i32, align 4
  %field = alloca ptr, align 8
  %field_number = alloca i32, align 4
  store ptr %input, ptr %input.addr, align 8
  store ptr %message, ptr %message.addr, align 8
  %0 = load ptr, ptr %message.addr, align 8
  %call = call noundef ptr @_ZNK6google8protobuf7Message13GetDescriptorEv(ptr noundef nonnull align 8 dereferenceable(16) %0)
  store ptr %call, ptr %descriptor, align 8
  %1 = load ptr, ptr %message.addr, align 8
  %call1 = call noundef ptr @_ZNK6google8protobuf7Message13GetReflectionEv(ptr noundef nonnull align 8 dereferenceable(16) %1)
  store ptr %call1, ptr %message_reflection, align 8
  br label %while.body

while.body:                                       ; preds = %if.end36, %if.end31, %entry
  %2 = load ptr, ptr %input.addr, align 8
  store ptr %2, ptr %this.addr.i, align 8
  %this1.i = load ptr, ptr %this.addr.i, align 8
  store ptr %this1.i, ptr %this.addr.i37, align 8
  %this1.i38 = load ptr, ptr %this.addr.i37, align 8
  store i32 0, ptr %v.i, align 4
  %3 = load ptr, ptr %this1.i38, align 8
  %buffer_end_.i = getelementptr inbounds %"class.google::protobuf::io::CodedInputStream", ptr %this1.i38, i32 0, i32 1
  %4 = load ptr, ptr %buffer_end_.i, align 8
  %cmp.i = icmp ult ptr %3, %4
  br i1 %cmp.i, label %if.then.i, label %if.end5.i

if.then.i:                                        ; preds = %while.body
  %5 = load ptr, ptr %this1.i38, align 8
  %6 = load i8, ptr %5, align 1
  %conv.i = zext i8 %6 to i32
  store i32 %conv.i, ptr %v.i, align 4
  %7 = load i32, ptr %v.i, align 4
  %cmp3.i = icmp ult i32 %7, 128
  br i1 %cmp3.i, label %if.then4.i, label %if.end.i

if.then4.i:                                       ; preds = %if.then.i
  call void @_ZN6google8protobuf2io16CodedInputStream7AdvanceEi(ptr noundef nonnull align 8 dereferenceable(80) %this1.i38, i32 noundef 1)
  %8 = load i32, ptr %v.i, align 4
  store i32 %8, ptr %retval.i, align 4
  br label %_ZN6google8protobuf2io16CodedInputStream16ReadTagNoLastTagEv.exit

if.end.i:                                         ; preds = %if.then.i
  br label %if.end5.i

if.end5.i:                                        ; preds = %if.end.i, %while.body
  %9 = load i32, ptr %v.i, align 4
  %call.i39 = call noundef i32 @_ZN6google8protobuf2io16CodedInputStream15ReadTagFallbackEj(ptr noundef nonnull align 8 dereferenceable(80) %this1.i38, i32 noundef %9)
  store i32 %call.i39, ptr %v.i, align 4
  %10 = load i32, ptr %v.i, align 4
  store i32 %10, ptr %retval.i, align 4
  br label %_ZN6google8protobuf2io16CodedInputStream16ReadTagNoLastTagEv.exit

_ZN6google8protobuf2io16CodedInputStream16ReadTagNoLastTagEv.exit: ; preds = %if.end5.i, %if.then4.i
  %11 = load i32, ptr %retval.i, align 4
  %last_tag_.i = getelementptr inbounds %"class.google::protobuf::io::CodedInputStream", ptr %this1.i, i32 0, i32 5
  store i32 %11, ptr %last_tag_.i, align 8
  store i32 %11, ptr %tag, align 4
  %12 = load i32, ptr %tag, align 4
  %cmp = icmp eq i32 %12, 0
  br i1 %cmp, label %if.then, label %if.end

if.then:                                          ; preds = %_ZN6google8protobuf2io16CodedInputStream16ReadTagNoLastTagEv.exit
  store i1 true, ptr %retval, align 1
  br label %return

if.end:                                           ; preds = %_ZN6google8protobuf2io16CodedInputStream16ReadTagNoLastTagEv.exit
  %13 = load i32, ptr %tag, align 4
  %call3 = call noundef i32 @_ZN6google8protobuf8internal14WireFormatLite14GetTagWireTypeEj(i32 noundef %13)
  %cmp4 = icmp eq i32 %call3, 4
  br i1 %cmp4, label %if.then5, label %if.end6

if.then5:                                         ; preds = %if.end
  store i1 true, ptr %retval, align 1
  br label %return

if.end6:                                          ; preds = %if.end
  store ptr null, ptr %field, align 8
  %14 = load ptr, ptr %descriptor, align 8
  %cmp7 = icmp ne ptr %14, null
  br i1 %cmp7, label %if.then8, label %if.end33

if.then8:                                         ; preds = %if.end6
  %15 = load i32, ptr %tag, align 4
  %call9 = call noundef i32 @_ZN6google8protobuf8internal14WireFormatLite17GetTagFieldNumberEj(i32 noundef %15)
  store i32 %call9, ptr %field_number, align 4
  %16 = load ptr, ptr %descriptor, align 8
  %17 = load i32, ptr %field_number, align 4
  %call10 = call noundef ptr @_ZNK6google8protobuf10Descriptor17FindFieldByNumberEi(ptr noundef nonnull align 8 dereferenceable(152) %16, i32 noundef %17)
  store ptr %call10, ptr %field, align 8
  %18 = load ptr, ptr %field, align 8
  %cmp11 = icmp eq ptr %18, null
  br i1 %cmp11, label %land.lhs.true, label %if.end21

land.lhs.true:                                    ; preds = %if.then8
  %19 = load ptr, ptr %descriptor, align 8
  %20 = load i32, ptr %field_number, align 4
  %call12 = call noundef zeroext i1 @_ZNK6google8protobuf10Descriptor17IsExtensionNumberEi(ptr noundef nonnull align 8 dereferenceable(152) %19, i32 noundef %20)
  br i1 %call12, label %if.then13, label %if.end21

if.then13:                                        ; preds = %land.lhs.true
  %21 = load ptr, ptr %input.addr, align 8
  %call14 = call noundef ptr @_ZN6google8protobuf2io16CodedInputStream16GetExtensionPoolEv(ptr noundef nonnull align 8 dereferenceable(80) %21)
  %cmp15 = icmp eq ptr %call14, null
  br i1 %cmp15, label %if.then16, label %if.else

if.then16:                                        ; preds = %if.then13
  %22 = load ptr, ptr %message_reflection, align 8
  %23 = load i32, ptr %field_number, align 4
  %call17 = call noundef ptr @_ZNK6google8protobuf10Reflection26FindKnownExtensionByNumberEi(ptr noundef nonnull align 8 dereferenceable(112) %22, i32 noundef %23)
  store ptr %call17, ptr %field, align 8
  br label %if.end20

if.else:                                          ; preds = %if.then13
  %24 = load ptr, ptr %input.addr, align 8
  %call18 = call noundef ptr @_ZN6google8protobuf2io16CodedInputStream16GetExtensionPoolEv(ptr noundef nonnull align 8 dereferenceable(80) %24)
  %25 = load ptr, ptr %descriptor, align 8
  %26 = load i32, ptr %field_number, align 4
  %call19 = call noundef ptr @_ZNK6google8protobuf14DescriptorPool21FindExtensionByNumberEPKNS0_10DescriptorEi(ptr noundef nonnull align 8 dereferenceable(96) %call18, ptr noundef %25, i32 noundef %26)
  store ptr %call19, ptr %field, align 8
  br label %if.end20

if.end20:                                         ; preds = %if.else, %if.then16
  br label %if.end21

if.end21:                                         ; preds = %if.end20, %land.lhs.true, %if.then8
  %27 = load ptr, ptr %field, align 8
  %cmp22 = icmp eq ptr %27, null
  br i1 %cmp22, label %land.lhs.true23, label %if.end32

land.lhs.true23:                                  ; preds = %if.end21
  %28 = load ptr, ptr %descriptor, align 8
  %call24 = call noundef nonnull align 8 dereferenceable(88) ptr @_ZNK6google8protobuf10Descriptor7optionsEv(ptr noundef nonnull align 8 dereferenceable(152) %28)
  %call25 = call noundef zeroext i1 @_ZNK6google8protobuf14MessageOptions23message_set_wire_formatEv(ptr noundef nonnull align 8 dereferenceable(88) %call24)
  br i1 %call25, label %land.lhs.true26, label %if.end32

land.lhs.true26:                                  ; preds = %land.lhs.true23
  %29 = load i32, ptr %tag, align 4
  %cmp27 = icmp eq i32 %29, 11
  br i1 %cmp27, label %if.then28, label %if.end32

if.then28:                                        ; preds = %land.lhs.true26
  %30 = load ptr, ptr %input.addr, align 8
  %31 = load ptr, ptr %message.addr, align 8
  %call29 = call noundef zeroext i1 @_ZN6google8protobuf8internal10WireFormat27ParseAndMergeMessageSetItemEPNS0_2io16CodedInputStreamEPNS0_7MessageE(ptr noundef %30, ptr noundef %31)
  br i1 %call29, label %if.end31, label %if.then30

if.then30:                                        ; preds = %if.then28
  store i1 false, ptr %retval, align 1
  br label %return

if.end31:                                         ; preds = %if.then28
  br label %while.body, !llvm.loop !13

if.end32:                                         ; preds = %land.lhs.true26, %land.lhs.true23, %if.end21
  br label %if.end33

if.end33:                                         ; preds = %if.end32, %if.end6
  %32 = load i32, ptr %tag, align 4
  %33 = load ptr, ptr %field, align 8
  %34 = load ptr, ptr %message.addr, align 8
  %35 = load ptr, ptr %input.addr, align 8
  %call34 = call noundef zeroext i1 @_ZN6google8protobuf8internal10WireFormat18ParseAndMergeFieldEjPKNS0_15FieldDescriptorEPNS0_7MessageEPNS0_2io16CodedInputStreamE(i32 noundef %32, ptr noundef %33, ptr noundef %34, ptr noundef %35)
  br i1 %call34, label %if.end36, label %if.then35

if.then35:                                        ; preds = %if.end33
  store i1 false, ptr %retval, align 1
  br label %return

if.end36:                                         ; preds = %if.end33
  br label %while.body, !llvm.loop !13

return:                                           ; preds = %if.then35, %if.then30, %if.then5, %if.then
  %36 = load i1, ptr %retval, align 1
  ret i1 %36
}