; Function Attrs: mustprogress uwtable
define noundef zeroext i1 @_ZN6google8protobuf8internal10WireFormat20ParseAndMergePartialEPNS0_2io16CodedInputStreamEPNS0_7MessageE(ptr noundef %input, ptr noundef %message) local_unnamed_addr #3 align 2 {
entry:
  %vtable.i = load ptr, ptr %message, align 8
  %vfn.i = getelementptr inbounds nuw i8, ptr %vtable.i, i64 80
  %0 = load ptr, ptr %vfn.i, align 8
  %call.i = tail call { ptr, ptr } %0(ptr noundef nonnull align 8 dereferenceable(16) %message)
  %call.i.fr = freeze { ptr, ptr } %call.i
  %1 = extractvalue { ptr, ptr } %call.i.fr, 0
  %vtable.i24 = load ptr, ptr %message, align 8
  %vfn.i25 = getelementptr inbounds nuw i8, ptr %vtable.i24, i64 80
  %2 = load ptr, ptr %vfn.i25, align 8
  %call.i26 = tail call { ptr, ptr } %2(ptr noundef nonnull align 8 dereferenceable(16) %message)
  %3 = extractvalue { ptr, ptr } %call.i26, 1
  %buffer_end_.i = getelementptr inbounds nuw i8, ptr %input, i64 8
  %last_tag_.i = getelementptr inbounds nuw i8, ptr %input, i64 32
  %cmp7.not = icmp eq ptr %1, null
  %extension_pool_.i = getelementptr inbounds nuw i8, ptr %input, i64 64
  %options_.i = getelementptr inbounds nuw i8, ptr %1, i64 32
  br i1 %cmp7.not, label %while.body.us, label %while.body

while.body.us:                                    ; preds = %entry, %if.end6.us
  %4 = load ptr, ptr %input, align 8
  %5 = load ptr, ptr %buffer_end_.i, align 8
  %cmp.i.us = icmp ult ptr %4, %5
  br i1 %cmp.i.us, label %if.then.i.us, label %if.end5.i.us

if.then.i.us:                                     ; preds = %while.body.us
  %6 = load i8, ptr %4, align 1
  %conv.i.us = zext i8 %6 to i32
  %cmp3.i.us = icmp sgt i8 %6, -1
  br i1 %cmp3.i.us, label %if.then4.i.us, label %if.end5.i.us

if.end5.i.us:                                     ; preds = %if.then.i.us, %while.body.us
  %v.i.0.us = phi i32 [ %conv.i.us, %if.then.i.us ], [ 0, %while.body.us ]
  %call.i39.us = tail call noundef i32 @_ZN6google8protobuf2io16CodedInputStream15ReadTagFallbackEj(ptr noundef nonnull align 8 dereferenceable(80) %input, i32 noundef %v.i.0.us)
  br label %_ZN6google8protobuf2io16CodedInputStream16ReadTagNoLastTagEv.exit.us

if.then4.i.us:                                    ; preds = %if.then.i.us
  %add.ptr.i.us = getelementptr inbounds nuw i8, ptr %4, i64 1
  store ptr %add.ptr.i.us, ptr %input, align 8
  br label %_ZN6google8protobuf2io16CodedInputStream16ReadTagNoLastTagEv.exit.us

_ZN6google8protobuf2io16CodedInputStream16ReadTagNoLastTagEv.exit.us: ; preds = %if.then4.i.us, %if.end5.i.us
  %retval.i.0.us = phi i32 [ %conv.i.us, %if.then4.i.us ], [ %call.i39.us, %if.end5.i.us ]
  store i32 %retval.i.0.us, ptr %last_tag_.i, align 8
  %cmp.us = icmp eq i32 %retval.i.0.us, 0
  %and.i.us = and i32 %retval.i.0.us, 7
  %cmp4.us = icmp eq i32 %and.i.us, 4
  %or.cond35.us = or i1 %cmp.us, %cmp4.us
  br i1 %or.cond35.us, label %return, label %if.end6.us

if.end6.us:                                       ; preds = %_ZN6google8protobuf2io16CodedInputStream16ReadTagNoLastTagEv.exit.us
  %call34.us = tail call noundef zeroext i1 @_ZN6google8protobuf8internal10WireFormat18ParseAndMergeFieldEjPKNS0_15FieldDescriptorEPNS0_7MessageEPNS0_2io16CodedInputStreamE(i32 noundef %retval.i.0.us, ptr noundef null, ptr noundef nonnull %message, ptr noundef nonnull %input)
  br i1 %call34.us, label %while.body.us, label %return, !llvm.loop !13

while.body:                                       ; preds = %entry, %while.body.backedge
  %7 = load ptr, ptr %input, align 8
  %8 = load ptr, ptr %buffer_end_.i, align 8
  %cmp.i = icmp ult ptr %7, %8
  br i1 %cmp.i, label %if.then.i, label %if.end5.i

if.then.i:                                        ; preds = %while.body
  %9 = load i8, ptr %7, align 1
  %conv.i = zext i8 %9 to i32
  %cmp3.i = icmp sgt i8 %9, -1
  br i1 %cmp3.i, label %if.then4.i, label %if.end5.i

if.then4.i:                                       ; preds = %if.then.i
  %add.ptr.i = getelementptr inbounds nuw i8, ptr %7, i64 1
  store ptr %add.ptr.i, ptr %input, align 8
  br label %_ZN6google8protobuf2io16CodedInputStream16ReadTagNoLastTagEv.exit

if.end5.i:                                        ; preds = %if.then.i, %while.body
  %v.i.0 = phi i32 [ %conv.i, %if.then.i ], [ 0, %while.body ]
  %call.i39 = tail call noundef i32 @_ZN6google8protobuf2io16CodedInputStream15ReadTagFallbackEj(ptr noundef nonnull align 8 dereferenceable(80) %input, i32 noundef %v.i.0)
  br label %_ZN6google8protobuf2io16CodedInputStream16ReadTagNoLastTagEv.exit

_ZN6google8protobuf2io16CodedInputStream16ReadTagNoLastTagEv.exit: ; preds = %if.end5.i, %if.then4.i
  %retval.i.0 = phi i32 [ %conv.i, %if.then4.i ], [ %call.i39, %if.end5.i ]
  store i32 %retval.i.0, ptr %last_tag_.i, align 8
  %cmp = icmp eq i32 %retval.i.0, 0
  %and.i = and i32 %retval.i.0, 7
  %cmp4 = icmp eq i32 %and.i, 4
  %or.cond35 = or i1 %cmp, %cmp4
  br i1 %or.cond35, label %return, label %if.end6

if.end6:                                          ; preds = %_ZN6google8protobuf2io16CodedInputStream16ReadTagNoLastTagEv.exit
  %shr.i = lshr i32 %retval.i.0, 3
  %call10 = tail call noundef ptr @_ZNK6google8protobuf10Descriptor17FindFieldByNumberEi(ptr noundef nonnull align 8 dereferenceable(152) %1, i32 noundef %shr.i)
  %cmp11 = icmp eq ptr %call10, null
  br i1 %cmp11, label %land.lhs.true, label %if.end33

land.lhs.true:                                    ; preds = %if.end6
  %call.i27 = tail call noundef ptr @_ZNK6google8protobuf10Descriptor34FindExtensionRangeContainingNumberEi(ptr noundef nonnull align 8 dereferenceable(152) %1, i32 noundef %shr.i)
  %cmp.i28.not = icmp eq ptr %call.i27, null
  br i1 %cmp.i28.not, label %land.lhs.true23, label %if.then13

if.then13:                                        ; preds = %land.lhs.true
  %10 = load ptr, ptr %extension_pool_.i, align 8
  %cmp15 = icmp eq ptr %10, null
  br i1 %cmp15, label %if.then16, label %if.else

if.then16:                                        ; preds = %if.then13
  %call17 = tail call noundef ptr @_ZNK6google8protobuf10Reflection26FindKnownExtensionByNumberEi(ptr noundef nonnull align 8 dereferenceable(112) %3, i32 noundef %shr.i)
  br label %if.end21

if.else:                                          ; preds = %if.then13
  %call19 = tail call noundef ptr @_ZNK6google8protobuf14DescriptorPool21FindExtensionByNumberEPKNS0_10DescriptorEi(ptr noundef nonnull align 8 dereferenceable(96) %10, ptr noundef nonnull %1, i32 noundef %shr.i)
  br label %if.end21

if.end21:                                         ; preds = %if.then16, %if.else
  %field.1 = phi ptr [ %call17, %if.then16 ], [ %call19, %if.else ]
  %cmp22 = icmp eq ptr %field.1, null
  br i1 %cmp22, label %land.lhs.true23, label %if.end33

land.lhs.true23:                                  ; preds = %land.lhs.true, %if.end21
  %11 = load ptr, ptr %options_.i, align 8
  %message_set_wire_format_.i.i = getelementptr inbounds nuw i8, ptr %11, i64 80
  %12 = load i8, ptr %message_set_wire_format_.i.i, align 8
  %tobool.i.i = trunc i8 %12 to i1
  %cmp27 = icmp eq i32 %retval.i.0, 11
  %or.cond = and i1 %cmp27, %tobool.i.i
  br i1 %or.cond, label %if.then28, label %if.end33

if.then28:                                        ; preds = %land.lhs.true23
  %call29 = tail call noundef zeroext i1 @_ZN6google8protobuf8internal10WireFormat27ParseAndMergeMessageSetItemEPNS0_2io16CodedInputStreamEPNS0_7MessageE(ptr noundef nonnull %input, ptr noundef nonnull %message)
  br i1 %call29, label %while.body.backedge, label %return

while.body.backedge:                              ; preds = %if.then28, %if.end33
  br label %while.body, !llvm.loop !13

if.end33:                                         ; preds = %if.end6, %if.end21, %land.lhs.true23
  %field.0 = phi ptr [ null, %land.lhs.true23 ], [ %field.1, %if.end21 ], [ %call10, %if.end6 ]
  %call34 = tail call noundef zeroext i1 @_ZN6google8protobuf8internal10WireFormat18ParseAndMergeFieldEjPKNS0_15FieldDescriptorEPNS0_7MessageEPNS0_2io16CodedInputStreamE(i32 noundef %retval.i.0, ptr noundef %field.0, ptr noundef nonnull %message, ptr noundef nonnull %input)
  br i1 %call34, label %while.body.backedge, label %return

return:                                           ; preds = %_ZN6google8protobuf2io16CodedInputStream16ReadTagNoLastTagEv.exit, %if.then28, %if.end33, %_ZN6google8protobuf2io16CodedInputStream16ReadTagNoLastTagEv.exit.us, %if.end6.us
  %.us-phi = phi i1 [ %or.cond35.us, %if.end6.us ], [ %or.cond35.us, %_ZN6google8protobuf2io16CodedInputStream16ReadTagNoLastTagEv.exit.us ], [ %or.cond35, %if.end33 ], [ %or.cond35, %if.then28 ], [ %or.cond35, %_ZN6google8protobuf2io16CodedInputStream16ReadTagNoLastTagEv.exit ]
  ret i1 %.us-phi
}